target datalayout = "e-m:e-p270:32:32-p271:32:32-p272:64:64-i64:64-i128:128-f80:128-n8:16:32:64-S128"
target triple = "x86_64-pc-linux-gnu"

%struct.SurfaceDataRasInfo = type { %struct.SurfaceDataBounds, ptr, i32, i32, i32, i32, ptr, ptr, ptr, ptr, ptr, ptr, i32, %union.anon.0 }
%struct.SurfaceDataBounds = type { i32, i32, i32, i32 }
%union.anon.0 = type { ptr, [56 x i8] }
%struct.SpanIteratorFuncs = type { ptr, ptr, ptr, ptr, ptr, ptr }
%struct._CompositeInfo = type { i32, %union.anon.1, i32 }
%union.anon.1 = type { float }

; Function Attrs: nounwind uwtable
define hidden void @Any4ByteXorSpans(ptr noundef %0, ptr noundef %1, ptr noundef %2, i32 noundef %3, ptr noundef %4, ptr noundef %5) #0 {
  %7 = alloca ptr, align 8
  %8 = alloca ptr, align 8
  %9 = alloca ptr, align 8
  %10 = alloca i32, align 4
  %11 = alloca ptr, align 8
  %12 = alloca ptr, align 8
  %13 = alloca ptr, align 8
  %14 = alloca i32, align 4
  %15 = alloca i32, align 4
  %16 = alloca i8, align 1
  %17 = alloca i8, align 1
  %18 = alloca i8, align 1
  %19 = alloca i8, align 1
  %20 = alloca i8, align 1
  %21 = alloca i8, align 1
  %22 = alloca i8, align 1
  %23 = alloca i8, align 1
  %24 = alloca i8, align 1
  %25 = alloca i8, align 1
  %26 = alloca i8, align 1
  %27 = alloca i8, align 1
  %28 = alloca i32, align 4
  %29 = alloca [4 x i32], align 16
  %30 = alloca i32, align 4
  %31 = alloca i32, align 4
  %32 = alloca i32, align 4
  %33 = alloca i32, align 4
  %34 = alloca ptr, align 8
  %35 = alloca i32, align 4
  store ptr %0, ptr %7, align 8
  store ptr %1, ptr %8, align 8
  store ptr %2, ptr %9, align 8
  store i32 %3, ptr %10, align 4
  store ptr %4, ptr %11, align 8
  store ptr %5, ptr %12, align 8
  %36 = load ptr, ptr %7, align 8
  %37 = getelementptr inbounds %struct.SurfaceDataRasInfo, ptr %36, i32 0, i32 1
  %38 = load ptr, ptr %37, align 8
  store ptr %38, ptr %13, align 8
  %39 = load ptr, ptr %12, align 8
  %40 = getelementptr inbounds %struct._CompositeInfo, ptr %39, i32 0, i32 1
  %41 = load i32, ptr %40, align 4
  store i32 %41, ptr %14, align 4
  %42 = load ptr, ptr %12, align 8
  %43 = getelementptr inbounds %struct._CompositeInfo, ptr %42, i32 0, i32 2
  %44 = load i32, ptr %43, align 4
  store i32 %44, ptr %15, align 4
  %45 = load ptr, ptr %7, align 8
  %46 = getelementptr inbounds %struct.SurfaceDataRasInfo, ptr %45, i32 0, i32 4
  %47 = load i32, ptr %46, align 8
  store i32 %47, ptr %28, align 4
  br label %48

48:                                               ; preds = %6
  %49 = load i32, ptr %14, align 4
  %50 = trunc i32 %49 to i8
  store i8 %50, ptr %16, align 1
  %51 = load i32, ptr %14, align 4
  %52 = ashr i32 %51, 8
  %53 = trunc i32 %52 to i8
  store i8 %53, ptr %17, align 1
  %54 = load i32, ptr %14, align 4
  %55 = ashr i32 %54, 16
  %56 = trunc i32 %55 to i8
  store i8 %56, ptr %18, align 1
  %57 = load i32, ptr %14, align 4
  %58 = ashr i32 %57, 24
  %59 = trunc i32 %58 to i8
  store i8 %59, ptr %19, align 1
  br label %60

60:                                               ; preds = %48
  br label %61

61:                                               ; preds = %60
  %62 = load i32, ptr %10, align 4
  %63 = trunc i32 %62 to i8
  store i8 %63, ptr %20, align 1
  %64 = load i32, ptr %10, align 4
  %65 = ashr i32 %64, 8
  %66 = trunc i32 %65 to i8
  store i8 %66, ptr %21, align 1
  %67 = load i32, ptr %10, align 4
  %68 = ashr i32 %67, 16
  %69 = trunc i32 %68 to i8
  store i8 %69, ptr %22, align 1
  %70 = load i32, ptr %10, align 4
  %71 = ashr i32 %70, 24
  %72 = trunc i32 %71 to i8
  store i8 %72, ptr %23, align 1
  br label %73

73:                                               ; preds = %61
  br label %74

74:                                               ; preds = %73
  %75 = load i32, ptr %15, align 4
  %76 = trunc i32 %75 to i8
  store i8 %76, ptr %24, align 1
  %77 = load i32, ptr %15, align 4
  %78 = lshr i32 %77, 8
  %79 = trunc i32 %78 to i8
  store i8 %79, ptr %25, align 1
  %80 = load i32, ptr %15, align 4
  %81 = lshr i32 %80, 16
  %82 = trunc i32 %81 to i8
  store i8 %82, ptr %26, align 1
  %83 = load i32, ptr %15, align 4
  %84 = lshr i32 %83, 24
  %85 = trunc i32 %84 to i8
  store i8 %85, ptr %27, align 1
  br label %86

86:                                               ; preds = %74
  br label %87

87:                                               ; preds = %219, %86
  %88 = load ptr, ptr %8, align 8
  %89 = getelementptr inbounds %struct.SpanIteratorFuncs, ptr %88, i32 0, i32 4
  %90 = load ptr, ptr %89, align 8
  %91 = load ptr, ptr %9, align 8
  %92 = getelementptr inbounds [4 x i32], ptr %29, i64 0, i64 0
  %93 = call zeroext i8 %90(ptr noundef %91, ptr noundef %92)
  %94 = icmp ne i8 %93, 0
  br i1 %94, label %95, label %220

95:                                               ; preds = %87
  %96 = getelementptr inbounds [4 x i32], ptr %29, i64 0, i64 0
  %97 = load i32, ptr %96, align 16
  store i32 %97, ptr %30, align 4
  %98 = getelementptr inbounds [4 x i32], ptr %29, i64 0, i64 1
  %99 = load i32, ptr %98, align 4
  store i32 %99, ptr %31, align 4
  %100 = getelementptr inbounds [4 x i32], ptr %29, i64 0, i64 2
  %101 = load i32, ptr %100, align 8
  %102 = load i32, ptr %30, align 4
  %103 = sub nsw i32 %101, %102
  store i32 %103, ptr %32, align 4
  %104 = getelementptr inbounds [4 x i32], ptr %29, i64 0, i64 3
  %105 = load i32, ptr %104, align 4
  %106 = load i32, ptr %31, align 4
  %107 = sub nsw i32 %105, %106
  store i32 %107, ptr %33, align 4
  %108 = load ptr, ptr %13, align 8
  %109 = ptrtoint ptr %108 to i64
  %110 = load i32, ptr %31, align 4
  %111 = sext i32 %110 to i64
  %112 = load i32, ptr %28, align 4
  %113 = sext i32 %112 to i64
  %114 = mul nsw i64 %111, %113
  %115 = load i32, ptr %30, align 4
  %116 = sext i32 %115 to i64
  %117 = mul nsw i64 %116, 4
  %118 = add nsw i64 %114, %117
  %119 = add nsw i64 %109, %118
  %120 = inttoptr i64 %119 to ptr
  store ptr %120, ptr %34, align 8
  br label %121

121:                                              ; preds = %215, %95
  store i32 0, ptr %35, align 4
  br label %122

122:                                              ; preds = %205, %121
  %123 = load i32, ptr %35, align 4
  %124 = load i32, ptr %32, align 4
  %125 = icmp ult i32 %123, %124
  br i1 %125, label %126, label %208

126:                                              ; preds = %122
  br label %127

127:                                              ; preds = %126
  %128 = load i8, ptr %20, align 1
  %129 = zext i8 %128 to i32
  %130 = load i8, ptr %16, align 1
  %131 = zext i8 %130 to i32
  %132 = xor i32 %129, %131
  %133 = load i8, ptr %24, align 1
  %134 = zext i8 %133 to i32
  %135 = xor i32 %134, -1
  %136 = and i32 %132, %135
  %137 = load ptr, ptr %34, align 8
  %138 = load i32, ptr %35, align 4
  %139 = mul i32 4, %138
  %140 = add i32 %139, 0
  %141 = zext i32 %140 to i64
  %142 = getelementptr inbounds i8, ptr %137, i64 %141
  %143 = load i8, ptr %142, align 1
  %144 = zext i8 %143 to i32
  %145 = xor i32 %144, %136
  %146 = trunc i32 %145 to i8
  store i8 %146, ptr %142, align 1
  %147 = load i8, ptr %21, align 1
  %148 = zext i8 %147 to i32
  %149 = load i8, ptr %17, align 1
  %150 = zext i8 %149 to i32
  %151 = xor i32 %148, %150
  %152 = load i8, ptr %25, align 1
  %153 = zext i8 %152 to i32
  %154 = xor i32 %153, -1
  %155 = and i32 %151, %154
  %156 = load ptr, ptr %34, align 8
  %157 = load i32, ptr %35, align 4
  %158 = mul i32 4, %157
  %159 = add i32 %158, 1
  %160 = zext i32 %159 to i64
  %161 = getelementptr inbounds i8, ptr %156, i64 %160
  %162 = load i8, ptr %161, align 1
  %163 = zext i8 %162 to i32
  %164 = xor i32 %163, %155
  %165 = trunc i32 %164 to i8
  store i8 %165, ptr %161, align 1
  %166 = load i8, ptr %22, align 1
  %167 = zext i8 %166 to i32
  %168 = load i8, ptr %18, align 1
  %169 = zext i8 %168 to i32
  %170 = xor i32 %167, %169
  %171 = load i8, ptr %26, align 1
  %172 = zext i8 %171 to i32
  %173 = xor i32 %172, -1
  %174 = and i32 %170, %173
  %175 = load ptr, ptr %34, align 8
  %176 = load i32, ptr %35, align 4
  %177 = mul i32 4, %176
  %178 = add i32 %177, 2
  %179 = zext i32 %178 to i64
  %180 = getelementptr inbounds i8, ptr %175, i64 %179
  %181 = load i8, ptr %180, align 1
  %182 = zext i8 %181 to i32
  %183 = xor i32 %182, %174
  %184 = trunc i32 %183 to i8
  store i8 %184, ptr %180, align 1
  %185 = load i8, ptr %23, align 1
  %186 = zext i8 %185 to i32
  %187 = load i8, ptr %19, align 1
  %188 = zext i8 %187 to i32
  %189 = xor i32 %186, %188
  %190 = load i8, ptr %27, align 1
  %191 = zext i8 %190 to i32
  %192 = xor i32 %191, -1
  %193 = and i32 %189, %192
  %194 = load ptr, ptr %34, align 8
  %195 = load i32, ptr %35, align 4
  %196 = mul i32 4, %195
  %197 = add i32 %196, 3
  %198 = zext i32 %197 to i64
  %199 = getelementptr inbounds i8, ptr %194, i64 %198
  %200 = load i8, ptr %199, align 1
  %201 = zext i8 %200 to i32
  %202 = xor i32 %201, %193
  %203 = trunc i32 %202 to i8
  store i8 %203, ptr %199, align 1
  br label %204

204:                                              ; preds = %127
  br label %205

205:                                              ; preds = %204
  %206 = load i32, ptr %35, align 4
  %207 = add i32 %206, 1
  store i32 %207, ptr %35, align 4
  br label %122, !llvm.loop !18

208:                                              ; preds = %122
  %209 = load ptr, ptr %34, align 8
  %210 = ptrtoint ptr %209 to i64
  %211 = load i32, ptr %28, align 4
  %212 = sext i32 %211 to i64
  %213 = add nsw i64 %210, %212
  %214 = inttoptr i64 %213 to ptr
  store ptr %214, ptr %34, align 8
  br label %215

215:                                              ; preds = %208
  %216 = load i32, ptr %33, align 4
  %217 = add i32 %216, -1
  store i32 %217, ptr %33, align 4
  %218 = icmp ugt i32 %217, 0
  br i1 %218, label %121, label %219, !llvm.loop !19

219:                                              ; preds = %215
  br label %87, !llvm.loop !20

220:                                              ; preds = %87
  ret void
}