; Function Attrs: nounwind uwtable
define hidden void @Any4ByteXorSpans(ptr nocapture noundef readonly %0, ptr nocapture noundef readonly %1, ptr noundef %2, i32 noundef %3, ptr nocapture readnone %4, ptr nocapture noundef readonly %5) #1 {
  %7 = alloca [4 x i32], align 16
  %8 = getelementptr inbounds i8, ptr %0, i64 16
  %9 = load ptr, ptr %8, align 8
  %10 = getelementptr inbounds i8, ptr %5, i64 4
  %11 = load i32, ptr %10, align 4
  %12 = getelementptr inbounds i8, ptr %5, i64 8
  %13 = load i32, ptr %12, align 4
  %14 = getelementptr inbounds i8, ptr %0, i64 32
  %15 = load i32, ptr %14, align 8
  %16 = getelementptr inbounds i8, ptr %1, i64 32
  %17 = load ptr, ptr %16, align 8
  %18 = call zeroext i8 %17(ptr noundef %2, ptr noundef nonnull %7) #6
  %.not56 = icmp eq i8 %18, 0
  br i1 %.not56, label %._crit_edge, label %.lr.ph

.lr.ph:                                           ; preds = %6
  %19 = getelementptr inbounds i8, ptr %7, i64 4
  %20 = getelementptr inbounds i8, ptr %7, i64 8
  %21 = getelementptr inbounds i8, ptr %7, i64 12
  %22 = ptrtoint ptr %9 to i64
  %23 = sext i32 %15 to i64
  %24 = xor i32 %11, %3
  %25 = xor i32 %13, -1
  %26 = and i32 %24, %25
  %27 = trunc i32 %26 to i8
  %28 = lshr i32 %26, 8
  %29 = trunc i32 %28 to i8
  %30 = lshr i32 %26, 16
  %31 = trunc i32 %30 to i8
  %32 = lshr i32 %26, 24
  %33 = trunc nuw i32 %32 to i8
  br label %34

34:                                               ; preds = %.lr.ph, %.split55.us
  %35 = load i32, ptr %7, align 16
  %36 = load i32, ptr %20, align 8
  %.not57 = icmp eq i32 %36, %35
  br i1 %.not57, label %.split55.us, label %.lr.ph.us.preheader

.lr.ph.us.preheader:                              ; preds = %34
  %37 = sub i32 %36, %35
  %38 = sext i32 %35 to i64
  %39 = shl nsw i64 %38, 2
  %40 = add i64 %39, %22
  %41 = load i32, ptr %19, align 4
  %42 = sext i32 %41 to i64
  %43 = mul nsw i64 %42, %23
  %44 = add i64 %40, %43
  %45 = load i32, ptr %21, align 4
  %46 = sub nsw i32 %45, %41
  %wide.trip.count = zext i32 %37 to i64
  br label %.lr.ph.us

.lr.ph.us:                                        ; preds = %.lr.ph.us.preheader, %._crit_edge.us
  %.050.us = phi i32 [ %70, %._crit_edge.us ], [ %46, %.lr.ph.us.preheader ]
  %.049.in.us = phi i64 [ %69, %._crit_edge.us ], [ %44, %.lr.ph.us.preheader ]
  %.049.us = inttoptr i64 %.049.in.us to ptr
  br label %47

47:                                               ; preds = %.lr.ph.us, %47
  %indvars.iv = phi i64 [ 0, %.lr.ph.us ], [ %indvars.iv.next, %47 ]
  %48 = trunc nuw i64 %indvars.iv to i32
  %49 = shl i32 %48, 2
  %50 = zext i32 %49 to i64
  %51 = getelementptr inbounds i8, ptr %.049.us, i64 %50
  %52 = load i8, ptr %51, align 1
  %53 = xor i8 %52, %27
  store i8 %53, ptr %51, align 1
  %54 = or disjoint i32 %49, 1
  %55 = zext i32 %54 to i64
  %56 = getelementptr inbounds i8, ptr %.049.us, i64 %55
  %57 = load i8, ptr %56, align 1
  %58 = xor i8 %57, %29
  store i8 %58, ptr %56, align 1
  %59 = or disjoint i32 %49, 2
  %60 = zext i32 %59 to i64
  %61 = getelementptr inbounds i8, ptr %.049.us, i64 %60
  %62 = load i8, ptr %61, align 1
  %63 = xor i8 %62, %31
  store i8 %63, ptr %61, align 1
  %64 = or disjoint i32 %49, 3
  %65 = zext i32 %64 to i64
  %66 = getelementptr inbounds i8, ptr %.049.us, i64 %65
  %67 = load i8, ptr %66, align 1
  %68 = xor i8 %67, %33
  store i8 %68, ptr %66, align 1
  %indvars.iv.next = add nuw nsw i64 %indvars.iv, 1
  %exitcond.not = icmp eq i64 %indvars.iv.next, %wide.trip.count
  br i1 %exitcond.not, label %._crit_edge.us, label %47, !llvm.loop !18

._crit_edge.us:                                   ; preds = %47
  %69 = add nsw i64 %.049.in.us, %23
  %70 = add i32 %.050.us, -1
  %.not52.us = icmp eq i32 %70, 0
  br i1 %.not52.us, label %.split55.us, label %.lr.ph.us, !llvm.loop !19

.split55.us:                                      ; preds = %._crit_edge.us, %34
  %71 = load ptr, ptr %16, align 8
  %72 = call zeroext i8 %71(ptr noundef %2, ptr noundef nonnull %7) #6
  %.not = icmp eq i8 %72, 0
  br i1 %.not, label %._crit_edge, label %34, !llvm.loop !20

._crit_edge:                                      ; preds = %.split55.us, %6
  ret void
}